target datalayout = "e-m:e-p270:32:32-p271:32:32-p272:64:64-i64:64-i128:128-f80:128-n8:16:32:64-S128"
target triple = "x86_64-pc-linux-gnu"

%struct.slurm_preempt_ops = type { ptr, ptr, ptr }

@plugin_inited = internal global i32 0, align 4
@ops = internal global %struct.slurm_preempt_ops zeroinitializer, align 8

; Function Attrs: nounwind uwtable
define dso_local zeroext i1 @slurm_preemption_enabled() #0 {
  %1 = alloca i1, align 1
  %2 = alloca i8, align 1
  %3 = alloca i32, align 4
  call void @llvm.lifetime.start.p0(i64 1, ptr %2) #6
  store i8 0, ptr %2, align 1
  %4 = load i32, ptr @plugin_inited, align 4
  %5 = icmp eq i32 %4, 1
  br i1 %5, label %6, label %7

6:                                                ; preds = %0
  store i1 false, ptr %1, align 1
  store i32 1, ptr %3, align 4
  br label %17

7:                                                ; preds = %0
  %8 = load ptr, ptr getelementptr inbounds nuw (%struct.slurm_preempt_ops, ptr @ops, i32 0, i32 2), align 8
  %9 = call i32 %8(ptr noundef null, i32 noundef 0, ptr noundef %2)
  %10 = icmp ne i32 %9, 0
  br i1 %10, label %11, label %14

11:                                               ; preds = %7
  %12 = load i8, ptr %2, align 1, !range !8, !noundef !9
  %13 = trunc i8 %12 to i1
  store i1 %13, ptr %1, align 1
  store i32 1, ptr %3, align 4
  br label %17

14:                                               ; preds = %7
  %15 = load i8, ptr %2, align 1, !range !8, !noundef !9
  %16 = trunc i8 %15 to i1
  store i1 %16, ptr %1, align 1
  store i32 1, ptr %3, align 4
  br label %17

17:                                               ; preds = %14, %11, %6
  call void @llvm.lifetime.end.p0(i64 1, ptr %2) #6
  %18 = load i1, ptr %1, align 1
  ret i1 %18
}