; Function Attrs: nounwind uwtable
define dso_local zeroext i1 @slurm_preemption_enabled() local_unnamed_addr #0 {
  %1 = alloca i8, align 1
  call void @llvm.lifetime.start.p0(i64 1, ptr nonnull %1) #8
  store i8 0, ptr %1, align 1
  %2 = load i32, ptr @plugin_inited, align 4
  %3 = icmp eq i32 %2, 1
  br i1 %3, label %9, label %4

4:                                                ; preds = %0
  %5 = load ptr, ptr getelementptr inbounds nuw (i8, ptr @ops, i64 16), align 8
  %6 = call i32 %5(ptr noundef null, i32 noundef 0, ptr noundef nonnull %1) #8
  %7 = load i8, ptr %1, align 1, !range !8, !noundef !9
  %8 = trunc nuw i8 %7 to i1
  br label %9

9:                                                ; preds = %4, %0
  %.0 = phi i1 [ false, %0 ], [ %8, %4 ]
  call void @llvm.lifetime.end.p0(i64 1, ptr nonnull %1) #8
  ret i1 %.0
}